; Function Attrs: mustprogress uwtable
define noundef nonnull align 8 dereferenceable(8) ptr @_ZN8proxygenlsERSoRKNS_15HTTPTransactionE(ptr noundef nonnull returned align 8 dereferenceable(8) %os, ptr nocapture noundef nonnull readonly align 8 dereferenceable(912) %txn) local_unnamed_addr #3 {
entry:
  %transport_.i = getelementptr inbounds i8, ptr %txn, i64 272
  %0 = load ptr, ptr %transport_.i, align 8
  %vtable.i = load ptr, ptr %0, align 8
  %vfn.i = getelementptr inbounds i8, ptr %vtable.i, i64 184
  %1 = load ptr, ptr %vfn.i, align 8
  tail call void %1(ptr noundef nonnull align 8 dereferenceable(8) %0, ptr noundef nonnull align 8 dereferenceable(8) %os)
  %call.i = tail call noundef nonnull align 8 dereferenceable(8) ptr @_ZStlsISt11char_traitsIcEERSt13basic_ostreamIcT_ES5_PKc(ptr noundef nonnull align 8 dereferenceable(8) %os, ptr noundef nonnull @.str.25)
  %id_.i = getelementptr inbounds i8, ptr %txn, i64 248
  %2 = load i64, ptr %id_.i, align 8
  %call2.i = tail call noundef nonnull align 8 dereferenceable(8) ptr @_ZNSolsEm(ptr noundef nonnull align 8 dereferenceable(8) %call.i, i64 noundef %2)
  ret ptr %os
}